target datalayout = "e-m:e-p270:32:32-p271:32:32-p272:64:64-i64:64-i128:128-f80:128-n8:16:32:64-S128"
target triple = "x86_64-unknown-linux-gnu"

%"class.datalog::relation_signature" = type { %"class.datalog::tr_infrastructure<datalog::relation_traits>::signature_base" }
%"class.datalog::tr_infrastructure<datalog::relation_traits>::signature_base" = type { %class.ptr_vector }
%class.ptr_vector = type { %class.vector }
%class.vector = type { ptr }
%class.vector.0 = type { ptr }
%"class.datalog::table_signature" = type <{ %"class.datalog::tr_infrastructure<datalog::table_traits>::signature_base", i32, [4 x i8] }>
%"class.datalog::tr_infrastructure<datalog::table_traits>::signature_base" = type { %class.svector }
%class.svector = type { %class.vector.0 }
%"class.datalog::finite_product_relation" = type { %"class.datalog::relation_base.base", [4 x i8], %"class.datalog::table_signature", %class.svector.1, %class.svector.1, %"class.datalog::relation_signature", %class.svector.1, %class.svector.1, ptr, i32, ptr, %class.ptr_vector.3, %class.svector.1, i32, %class.uint_set, %class.scoped_ptr, %class.scoped_ptr.5 }
%"class.datalog::relation_base.base" = type { %"class.datalog::tr_infrastructure<datalog::relation_traits>::base_ancestor.base" }
%"class.datalog::tr_infrastructure<datalog::relation_traits>::base_ancestor.base" = type <{ ptr, ptr, %"class.datalog::relation_signature", i32 }>
%class.ptr_vector.3 = type { %class.vector.4 }
%class.vector.4 = type { ptr }
%class.svector.1 = type { %class.vector.2 }
%class.vector.2 = type { ptr }
%class.uint_set = type { %class.svector.1 }
%class.scoped_ptr = type { ptr }
%class.scoped_ptr.5 = type { ptr }

; Function Attrs: mustprogress uwtable
define hidden noundef ptr @_ZN7datalog23finite_product_relation14mk_empty_innerEv(ptr noundef nonnull align 8 dereferenceable(160) %this) #4 align 2 {
entry:
  %retval = alloca ptr, align 8
  %this.addr = alloca ptr, align 8
  store ptr %this, ptr %this.addr, align 8
  %this1 = load ptr, ptr %this.addr, align 8
  %m_other_kind = getelementptr inbounds %"class.datalog::finite_product_relation", ptr %this1, i32 0, i32 9
  %0 = load i32, ptr %m_other_kind, align 8
  %cmp = icmp eq i32 %0, -1
  br i1 %cmp, label %if.then, label %if.else

if.then:                                          ; preds = %entry
  %m_other_plugin = getelementptr inbounds %"class.datalog::finite_product_relation", ptr %this1, i32 0, i32 8
  %1 = load ptr, ptr %m_other_plugin, align 8
  %m_other_sig = getelementptr inbounds %"class.datalog::finite_product_relation", ptr %this1, i32 0, i32 5
  %vtable = load ptr, ptr %1, align 8
  %vfn = getelementptr inbounds ptr, ptr %vtable, i64 5
  %2 = load ptr, ptr %vfn, align 8
  %call = call noundef ptr %2(ptr noundef nonnull align 8 dereferenceable(32) %1, ptr noundef nonnull align 8 dereferenceable(8) %m_other_sig)
  store ptr %call, ptr %retval, align 8
  br label %return

if.else:                                          ; preds = %entry
  %m_other_plugin2 = getelementptr inbounds %"class.datalog::finite_product_relation", ptr %this1, i32 0, i32 8
  %3 = load ptr, ptr %m_other_plugin2, align 8
  %m_other_sig3 = getelementptr inbounds %"class.datalog::finite_product_relation", ptr %this1, i32 0, i32 5
  %m_other_kind4 = getelementptr inbounds %"class.datalog::finite_product_relation", ptr %this1, i32 0, i32 9
  %4 = load i32, ptr %m_other_kind4, align 8
  %vtable5 = load ptr, ptr %3, align 8
  %vfn6 = getelementptr inbounds ptr, ptr %vtable5, i64 6
  %5 = load ptr, ptr %vfn6, align 8
  %call7 = call noundef ptr %5(ptr noundef nonnull align 8 dereferenceable(32) %3, ptr noundef nonnull align 8 dereferenceable(8) %m_other_sig3, i32 noundef %4)
  store ptr %call7, ptr %retval, align 8
  br label %return

return:                                           ; preds = %if.else, %if.then
  %6 = load ptr, ptr %retval, align 8
  ret ptr %6
}