; Function Attrs: mustprogress uwtable
define hidden noundef ptr @_ZN7datalog23finite_product_relation14mk_empty_innerEv(ptr noundef nonnull align 8 dereferenceable(160) %this) local_unnamed_addr #3 align 2 {
entry:
  %m_other_kind = getelementptr inbounds i8, ptr %this, i64 96
  %0 = load i32, ptr %m_other_kind, align 8
  %cmp = icmp eq i32 %0, -1
  %m_other_plugin = getelementptr inbounds i8, ptr %this, i64 88
  %1 = load ptr, ptr %m_other_plugin, align 8
  %m_other_sig = getelementptr inbounds i8, ptr %this, i64 64
  %vtable = load ptr, ptr %1, align 8
  br i1 %cmp, label %if.then, label %if.else

if.then:                                          ; preds = %entry
  %vfn = getelementptr inbounds i8, ptr %vtable, i64 40
  %2 = load ptr, ptr %vfn, align 8
  %call = tail call noundef ptr %2(ptr noundef nonnull align 8 dereferenceable(32) %1, ptr noundef nonnull align 8 dereferenceable(8) %m_other_sig)
  br label %return

if.else:                                          ; preds = %entry
  %vfn6 = getelementptr inbounds i8, ptr %vtable, i64 48
  %3 = load ptr, ptr %vfn6, align 8
  %call7 = tail call noundef ptr %3(ptr noundef nonnull align 8 dereferenceable(32) %1, ptr noundef nonnull align 8 dereferenceable(8) %m_other_sig, i32 noundef %0)
  br label %return

return:                                           ; preds = %if.else, %if.then
  %retval.0 = phi ptr [ %call, %if.then ], [ %call7, %if.else ]
  ret ptr %retval.0
}